(lp0
(F-2.983496774964059
F2.067002870057986
tp1
a(F-3.2277153150047937
F2.8778162246039667
tp2
a(F-2.2027913064875317
F2.176547781566468
tp3
a(F-3.264546815390987
F3.071713815119109
tp4
a(F-3.7858372409870915
F1.9635045848740458
tp5
a(F-2.6576223253474964
F1.7761953189866428
tp6
a(F-3.256168201980777
F1.4900301640859206
tp7
a(F-2.52027021270917
F2.5220644489139357
tp8
a(F-2.8229209815866945
F2.1384834677615663
tp9
a(F-2.885938295729449
F1.5485473622440904
tp10
a(F-3.2241926308625257
F2.7915356703033174
tp11
a(F-2.2798598649977335
F2.2025889675078183
tp12
a(F-3.5885963741388798
F2.4925803439720124
tp13
a(F-3.2303750832417215
F2.6722407462110898
tp14
a(F-3.873085692121296
F2.235895302001685
tp15
a(F-3.6490758553189537
F2.620998872769075
tp16
a(F-2.8764757067100244
F1.4328269211738358
tp17
a(F-2.527700709537303
F1.6454272356505044
tp18
a(F-2.4000998870500307
F2.3352044100554483
tp19
a(F-2.75389176166639
F2.9438014225702807
tp20
a(F-3.450642728204054
F1.6892911443736771
tp21
a(F-3.0877934098820106
F2.186604380949509
tp22
a(F-3.358461654404993
F2.7327084327576
tp23
a(F-2.7228499656393774
F2.615419009318239
tp24
a(F-1.4386787250351527
F3.0632507081322227
tp25
a(F-0.7204666230836367
F1.93741362024385
tp26
a(F-0.7557921477526628
F1.9244032780430214
tp27
a(F-1.9914907152120134
F1.8411594847392143
tp28
a(F-1.3460024559096546
F1.594735151358018
tp29
a(F-1.5308342342321628
F2.427466625112462
tp30
a(F-0.9634023559599705
F1.8807543979208257
tp31
a(F-1.0753073010140575
F3.055810061888469
tp32
a(F-1.207449992985472
F3.148651912328117
tp33
a(F-1.2425094108219292
F1.5954806042450478
tp34
a(F-1.0349463154717922
F2.526367576099343
tp35
a(F-0.5632640743024186
F1.7039866602650802
tp36
a(F-0.5753445984189773
F2.45504938616708
tp37
a(F-1.804581544199987
F2.81714084562792
tp38
a(F-1.456708799011309
F2.4586535438732806
tp39
a(F-0.8040198653675723
F1.6458304373454544
tp40
a(F-0.9501381841620049
F2.468856119839123
tp41
a(F-0.8537008789593161
F2.7797254749198235
tp42
a(F-1.8558327465345228
F2.0832669520188274
tp43
a(F-1.8868282203917217
F1.6587943132233338
tp44
a(F-1.4144633970775746
F1.3974225610835076
tp45
a(F-1.8481621890033986
F1.7290651286320808
tp46
a(F-1.547495563768189
F1.7574711821394895
tp47
a(F-1.2416596366822168
F2.391360156017582
tp48
a(F0.39747653165352514
F1.8417672964134475
tp49
a(F1.188345621989301
F2.432125289998141
tp50
a(F0.809125524619146
F2.544799843062973
tp51
a(F-0.3527719063939363
F2.412362792742566
tp52
a(F0.11942403523122413
F2.3485126622557706
tp53
a(F-0.3903272925327481
F2.734046046679188
tp54
a(F-0.03703637359554812
F2.5836844041450897
tp55
a(F0.8943959863116167
F2.158569070130877
tp56
a(F0.9251235415918342
F2.6503512148769213
tp57
a(F0.8229065875984516
F1.6793113940517717
tp58
a(F1.1024664009785188
F2.607959323591857
tp59
a(F1.0446914576384456
F2.3624907463944105
tp60
a(F0.37383613288778905
F2.943341791719834
tp61
a(F0.5355490245312162
F2.094020343291098
tp62
a(F0.12928436653881592
F1.9760587563110237
tp63
a(F-0.3598742830926669
F2.611891777541679
tp64
a(F0.013182390749055806
F1.5709366588820424
tp65
a(F0.250943189061269
F2.5156693867688116
tp66
a(F1.2341678436179688
F1.8182556088243895
tp67
a(F0.48885440598416774
F2.336056342753512
tp68
a(F-0.42978788648800026
F2.090799475467307
tp69
a(F1.100360403768481
F2.2939597151489104
tp70
a(F0.45810050597193563
F2.288389744635738
tp71
a(F0.4968553602188135
F2.9371187923255064
tp72
a(F1.3498108883125866
F1.9558192138404522
tp73
a(F2.250947044225512
F2.6571722200138113
tp74
a(F2.61623228652323
F2.3230443091638975
tp75
a(F1.9672466879992705
F2.9901257556287533
tp76
a(F2.818550720472021
F2.3325062480895777
tp77
a(F2.6311589006785425
F2.715238434620125
tp78
a(F2.4056549607552524
F2.4117583416636124
tp79
a(F2.1513968968082775
F1.8687549178952156
tp80
a(F2.057247058753152
F2.3790081165685226
tp81
a(F2.613998322499307
F2.9337305166150225
tp82
a(F1.759686651980666
F2.739794649652338
tp83
a(F2.482261749170666
F2.6874646002290383
tp84
a(F2.3932373061374905
F1.983560551047623
tp85
a(F2.063700514626123
F2.4332151601646275
tp86
a(F1.878370343425761
F1.4210850541827726
tp87
a(F2.74614658471118
F2.826533239721465
tp88
a(F1.9094433132091957
F2.4245915600399695
tp89
a(F2.4787465585423214
F2.967157086779797
tp90
a(F1.5731824590643388
F1.868067915420162
tp91
a(F1.6739541628652645
F2.0492388798790784
tp92
a(F1.7742554902694216
F1.504873379152556
tp93
a(F2.295818515668234
F3.06064939867095
tp94
a(F1.4630976447074757
F2.5014672755794014
tp95
a(F1.729583032757073
F2.9826395965891264
tp96
a(F-1.9602990048346236
F-0.017793160868317948
tp97
a(F-2.8807270009294563
F0.23547006902569723
tp98
a(F-2.1327127878190226
F-0.19393559751494793
tp99
a(F-1.9548373390407656
F0.8813311940760142
tp100
a(F-3.015391787909487
F0.3664202181444054
tp101
a(F-2.8548262571596577
F0.44283682946965386
tp102
a(F-1.466387284422201
F1.1056992180389644
tp103
a(F-1.7806932820268087
F1.0862560956732077
tp104
a(F-2.079395144038532
F0.14220503277877627
tp105
a(F-2.9291837968808796
F0.8040567397309566
tp106
a(F-2.1215830105079334
F1.494221335334772
tp107
a(F-1.8940660334145383
F1.2017247356814802
tp108
a(F-2.7375996755214924
F0.5097288233348123
tp109
a(F-2.065147438251586
F0.6232027753527467
tp110
a(F-2.456114640832503
F1.1810512238642237
tp111
a(F-1.4119401188877523
F1.0253428848432145
tp112
a(F-1.8609183610548161
F0.01928297221991082
tp113
a(F-2.306264611695587
F1.0329768756193527
tp114
a(F-2.2818486499496644
F0.06732543668858759
tp115
a(F-1.9436451212968626
F1.3547333619483053
tp116
a(F-2.367280742464307
F0.3943321382388574
tp117
a(F-1.6457469711706247
F1.4254450779795507
tp118
a(F-2.08462671040264
F0.7761982454849501
tp119
a(F-2.699634707637827
F0.6750230264755168
tp120
a(F0.10835130986768404
F0.903665108091628
tp121
a(F0.0698489512862861
F1.4332523513289501
tp122
a(F0.21502305216106166
F0.9175846167067194
tp123
a(F-1.1740784275268386
F1.1593383648690503
tp124
a(F-0.16446121463307395
F1.1597962474693329
tp125
a(F-1.2672375027342933
F0.600717118635361
tp126
a(F-0.0029048967710778584
F1.2541012508466105
tp127
a(F-0.9003352649346303
F0.8679031434332587
tp128
a(F-0.6162205680287494
F0.9554556535435039
tp129
a(F0.08581038900639615
F0.09273389009138522
tp130
a(F-0.8959632820491299
F1.4122021923784653
tp131
a(F-0.14436296747122745
F-0.042839137899820745
tp132
a(F-0.26519633086629923
F1.489110764128267
tp133
a(F-0.49829756309486006
F1.13042682784458
tp134
a(F-0.7210321132945521
F-0.07969657097985916
tp135
a(F-0.7383298231056146
F0.07891129159578081
tp136
a(F-0.7732399599300153
F0.43032430271169786
tp137
a(F-0.7977957900401709
F0.8246692190246967
tp138
a(F-0.16033361313330285
F0.21026561525837306
tp139
a(F-0.6086724828391952
F0.3835092295108917
tp140
a(F-0.1820431371530673
F1.202349882073046
tp141
a(F0.41244661444252206
F0.26331825855852653
tp142
a(F-1.126830512627859
F0.20634508030327536
tp143
a(F0.32138402775352626
F1.127296832512523
tp144
a(F0.5949054309018791
F1.3016454301159857
tp145
a(F0.8492050213763984
F1.302105825713383
tp146
a(F1.0484193158155886
F0.2899325596637832
tp147
a(F1.652016080213503
F-0.026293352662180913
tp148
a(F0.9193838579589273
F1.1574440270549995
tp149
a(F1.691318482178401
F0.21405532848637243
tp150
a(F1.310327528623352
F1.2690545453401072
tp151
a(F1.741170410189288
F1.1773616325601732
tp152
a(F1.0636525195059408
F0.90757472490467
tp153
a(F1.099259754716732
F1.3240033492947143
tp154
a(F1.2552375382008714
F1.104817793542017
tp155
a(F0.6264602248332614
F0.8295494064051947
tp156
a(F0.7063345303510147
F0.7395110644730121
tp157
a(F1.773632127828263
F0.7851192038839823
tp158
a(F1.5385938400846744
F-0.049719048648827036
tp159
a(F1.1290051123194578
F0.7483483271454467
tp160
a(F1.3513150748204958
F0.09717891025833203
tp161
a(F1.4589137030533648
F0.4126598005683326
tp162
a(F1.091679204762264
F1.3945371077221014
tp163
a(F0.7179909316916133
F0.6627288553837607
tp164
a(F0.7995725833521854
F1.1520539351878991
tp165
a(F1.0984046654869881
F0.29707786505463507
tp166
a(F1.1640133830773853
F1.4762997582998667
tp167
a(F1.2413109635464692
F-0.11792719520320127
tp168
a(F2.569320547983035
F0.8548819319853336
tp169
a(F3.461092581679468
F0.27285176317053117
tp170
a(F3.4092822180676534
F1.3636574715563436
tp171
a(F3.444269739135598
F1.2311451750182543
tp172
a(F2.2485357734042184
F0.2374749116863355
tp173
a(F3.756084716024027
F1.2706646656147855
tp174
a(F3.4461040438560766
F0.35420200010300174
tp175
a(F3.7942711057439955
F1.2074722785632235
tp176
a(F3.800993428468525
F0.49301727768464243
tp177
a(F3.113167101157867
F1.225182234325875
tp178
a(F3.4870885902218265
F0.9651803580704095
tp179
a(F2.2103690506264297
F1.0547570698034583
tp180
a(F2.8097835376213083
F1.4301301764465721
tp181
a(F2.7694071846649777
F1.1729520664222235
tp182
a(F2.6914839260702585
F1.239454179903233
tp183
a(F3.0893331589191435
F0.3081688603067536
tp184
a(F3.49735654162142
F1.3363451335873409
tp185
a(F3.093094071085945
F0.35353067721169196
tp186
a(F3.748907614988262
F0.7727091596462028
tp187
a(F3.1946926044414248
F1.3149122320052908
tp188
a(F2.5881463028618046
F0.14822476058602985
tp189
a(F2.612327194660146
F0.6168307928188659
tp190
a(F3.2331575659022755
F0.25810663738356876
tp191
a(F3.0231739894089786
F1.7338895766886264
tp192
a(F-2.439536236147241
F-0.24478433731212967
tp193
a(F-2.9117875765013683
F-0.9501510416170247
tp194
a(F-2.3447728858846633
F-1.0040320143011185
tp195
a(F-2.694654356523852
F-0.10529617657538348
tp196
a(F-3.556691682165906
F-1.213020259609207
tp197
a(F-3.448487020697269
F-0.06279386730000969
tp198
a(F-3.1251191168078396
F-1.1460208344193359
tp199
a(F-2.255791506888678
F-0.49777506817636685
tp200
a(F-2.42177006583594
F-1.115879910214243
tp201
a(F-2.872453243928536
F-1.3360165973034186
tp202
a(F-2.5877192797425534
F-1.4130422361006731
tp203
a(F-2.9483123807632774
F-0.7110619065385368
tp204
a(F-2.321383740062086
F-1.0878397080215292
tp205
a(F-2.524560988234927
F-1.1477609926993328
tp206
a(F-2.7677593507406435
F-1.1414337895005189
tp207
a(F-2.914726199421339
F-0.9877111794641837
tp208
a(F-2.898460642143564
F0.16721065910621657
tp209
a(F-2.3914318950610105
F-0.5266165249037587
tp210
a(F-2.646000726860521
F-0.274105021003207
tp211
a(F-3.3719676187645917
F-0.8282896639148851
tp212
a(F-2.8581188978055194
F-0.21630019267221723
tp213
a(F-3.853116257483452
F-0.5423605447181432
tp214
a(F-3.0669582268269986
F-1.4911574963813519
tp215
a(F-3.693482276147504
F-1.2524089377921535
tp216
a(F-0.7064867473290708
F-1.1965300979587967
tp217
a(F-2.0725737359700758
F-0.425097035747835
tp218
a(F-0.920174659689929
F-0.6665972384477004
tp219
a(F-0.787843326113804
F-1.45009625240745
tp220
a(F-1.9475464609555173
F-0.5430277028793353
tp221
a(F-1.5132988726660064
F-0.25445484246198813
tp222
a(F-2.0582710557253865
F-0.9570368392071473
tp223
a(F-1.1617652959723395
F-1.5322318409946187
tp224
a(F-2.1185962242937126
F-0.7643399026201436
tp225
a(F-0.7156560212915788
F-1.2905837819896182
tp226
a(F-1.771177715377272
F-0.7343362115512713
tp227
a(F-0.5344847179952892
F-0.8903756849802558
tp228
a(F-0.9578818939054652
F-1.0608512970213182
tp229
a(F-1.7165788685242063
F-1.4900375257996379
tp230
a(F-1.25411058040633
F-1.0146633902212177
tp231
a(F-2.117411451236374
F-0.5715348373842035
tp232
a(F-1.0694665350797212
F-0.6666029365076389
tp233
a(F-0.44287530525337226
F-0.4176911033471118
tp234
a(F-0.6945382562246745
F-0.23806618825912773
tp235
a(F-1.8361546611496076
F-0.20862578023406253
tp236
a(F-0.950532599203403
F-0.1662820075007485
tp237
a(F-1.2981000857035012
F-0.2952113279435331
tp238
a(F-1.573721222175893
F-0.6832912261708504
tp239
a(F-1.7007976573305255
F-0.47566915054634995
tp240
a(F0.45600310705911884
F-0.9550539679787624
tp241
a(F-0.009566540761981823
F-1.1893111422276053
tp242
a(F1.0396102491683898
F-1.000242521701625
tp243
a(F1.2153827986719685
F-1.1468899908848387
tp244
a(F0.14316906737407376
F-0.6882814498661636
tp245
a(F0.35575863091972093
F-1.0273164296278692
tp246
a(F0.6436736784557981
F-0.16591649415425747
tp247
a(F0.38068267060017513
F0.0445711456950455
tp248
a(F0.8941752031950869
F-1.0093097565140106
tp249
a(F0.06901458706172447
F-0.8710770993333494
tp250
a(F-0.06866789150150887
F-0.6265406354697547
tp251
a(F0.24512201447305526
F-0.5450691333064803
tp252
a(F0.3598239237607481
F-0.10116379938492726
tp253
a(F0.7013083956023543
F-1.2697890995700374
tp254
a(F1.142859231957015
F-0.6164761037602637
tp255
a(F0.15925188782533906
F-1.1094457644787876
tp256
a(F0.8723692324381818
F-0.1152507188653964
tp257
a(F0.49690238799643005
F-1.2021316169548972
tp258
a(F0.46955716330353314
F-1.3946761947798367
tp259
a(F0.7279265837064595
F-1.0361928063939265
tp260
a(F-0.1987438147982965
F-0.6718436973400921
tp261
a(F-0.3710356510688928
F-0.29098370783222927
tp262
a(F-0.009833093770510226
F-0.7618488060223567
tp263
a(F0.8534993984734349
F-0.8434369351160271
tp264
a(F2.6040790993948866
F-0.4713558856949336
tp265
a(F2.8194896327002175
F-0.9217248604813848
tp266
a(F1.6153288230766971
F-1.1031166282213019
tp267
a(F1.7074615293913689
F-1.3926487773897276
tp268
a(F1.5709950154571506
F-0.817211231680494
tp269
a(F2.5225970457795883
F-0.6941349797962073
tp270
a(F2.656967950766299
F-0.5290238824077667
tp271
a(F1.7573242289521538
F-1.3004179773493973
tp272
a(F1.7804833816287762
F-0.270974534009478
tp273
a(F2.292832992461787
F-0.8278854731779777
tp274
a(F1.7819024631519325
F-1.1710481192458784
tp275
a(F2.3619019513313786
F-0.574155387915404
tp276
a(F2.1974762378443113
F-0.6330757238855105
tp277
a(F2.2623679294086507
F-1.1698709826894422
tp278
a(F2.4777324343472413
F-0.12303894883802347
tp279
a(F2.702000346607896
F-0.4151312123791897
tp280
a(F2.697066908809486
F-0.9480151157765555
tp281
a(F1.7958798775948406
F-0.09415447275450495
tp282
a(F1.3422856009790813
F-0.9806806835846669
tp283
a(F2.051759129709079
F-0.5997045506608694
tp284
a(F1.518164654987158
F-1.0596254041270639
tp285
a(F1.5250909843353873
F-0.25067420644007665
tp286
a(F2.6162228293555088
F-0.9961553431207171
tp287
a(F1.7601024201231381
F-0.8184254199327954
tp288
a(F-2.3417225376996167
F-1.5557344921760166
tp289
a(F-2.7389933020133927
F-2.0826365774467037
tp290
a(F-1.3958647098763688
F-2.2388151786556993
tp291
a(F-2.028199997879815
F-2.2804077081791787
tp292
a(F-2.3200313691450205
F-1.4688269152550215
tp293
a(F-2.3489401439644153
F-2.501334814821301
tp294
a(F-1.7431052952398098
F-1.5404341919801838
tp295
a(F-2.8174682361265706
F-2.4308661084223435
tp296
a(F-2.684703174742748
F-1.7568939853778378
tp297
a(F-2.6705641048625646
F-2.567481315615661
tp298
a(F-2.222398124480695
F-1.6248080086663825
tp299
a(F-1.8611652039142217
F-2.610560528655643
tp300
a(F-1.649998990143939
F-2.7631870570992865
tp301
a(F-2.9170123590094756
F-2.169224425169328
tp302
a(F-2.227911536968135
F-1.2866866502072671
tp303
a(F-1.6766276873875356
F-2.900981131872313
tp304
a(F-2.6697937265958607
F-2.38729279638265
tp305
a(F-1.896779110459748
F-2.2982255781559804
tp306
a(F-2.419623514298949
F-2.9040745976591777
tp307
a(F-2.544327438753241
F-2.757518434836739
tp308
a(F-2.418963913521967
F-1.8039478574894832
tp309
a(F-2.001935075809521
F-2.3025232092280965
tp310
a(F-1.733879212102438
F-2.5692542744188716
tp311
a(F-1.9616738249667356
F-1.630106440101358
tp312
a(F-0.8091125583387673
F-1.630362844119394
tp313
a(F-0.6422431033708349
F-3.043537148750598
tp314
a(F-0.12968022022221715
F-2.082370643616307
tp315
a(F-0.6206065428334191
F-2.7823979458540204
tp316
a(F-0.5095987120924126
F-1.3108412225266628
tp317
a(F-0.39680388588570215
F-1.8293974226632237
tp318
a(F-0.3805635869917443
F-1.4719139361726523
tp319
a(F-0.2975789683472436
F-2.862438598235819
tp320
a(F-0.9396782353103026
F-2.332071913546535
tp321
a(F-1.271006122745534
F-1.8313313573602814
tp322
a(F-0.46725543394445856
F-1.4095880762052118
tp323
a(F-0.6117379475587201
F-1.7251946746443105
tp324
a(F-0.14897845841849655
F-1.5639143525891566
tp325
a(F0.36530151198744765
F-2.4618820106969888
tp326
a(F-1.0618074562206594
F-2.54190570591479
tp327
a(F-0.20898775370499956
F-1.7667150354078354
tp328
a(F-0.6194813068317269
F-3.072101753230933
tp329
a(F0.03651476468966863
F-1.622365691326196
tp330
a(F0.07334596125361825
F-2.5519781893442026
tp331
a(F-0.1379950227675406
F-1.6412592774169803
tp332
a(F-0.293576229949279
F-1.366144343527708
tp333
a(F-0.5630126126026602
F-1.9494047637641245
tp334
a(F-0.8310456571203229
F-1.6116466672108043
tp335
a(F-0.46880717104368874
F-1.5735032544841423
tp336
a(F0.824107440001602
F-1.709666450218998
tp337
a(F1.9690788780595057
F-2.3977984297900017
tp338
a(F2.0870656242824484
F-2.4585391301200223
tp339
a(F1.411462626835076
F-2.747466320761829
tp340
a(F1.3310386510292493
F-2.1756662085294383
tp341
a(F1.2941059252721168
F-1.808093527434869
tp342
a(F1.286166558675853
F-2.280610297057507
tp343
a(F0.4746948644899127
F-2.476670725698634
tp344
a(F0.7468214107788378
F-2.430878222679297
tp345
a(F1.340589030655894
F-2.6440537501872345
tp346
a(F1.5408148430786708
F-2.3465389815774227
tp347
a(F0.44945066629684405
F-2.516687795116683
tp348
a(F1.3779962953129028
F-1.3985278026712056
tp349
a(F1.9142497761731916
F-2.2465800974588896
tp350
a(F1.3028602668557423
F-2.681381587214177
tp351
a(F1.1760429360355589
F-2.061611344369754
tp352
a(F1.4671891590284443
F-2.613939896451012
tp353
a(F2.1013329697599485
F-1.8522759762266305
tp354
a(F1.0833106840965872
F-2.026293220094253
tp355
a(F1.3213708420817236
F-2.526856777106422
tp356
a(F1.3962885228275588
F-1.536408410808992
tp357
a(F1.5831866836382682
F-2.2629372135001704
tp358
a(F0.4678648856532517
F-2.3041353061655956
tp359
a(F1.2440235482283175
F-2.644942525432542
tp360
a(F2.794111734351567
F-2.6808592568911678
tp361
a(F2.7354630607096024
F-1.8723999832846414
tp362
a(F3.1667606565038717
F-2.776778454837014
tp363
a(F2.4010852646558583
F-2.1329359211538454
tp364
a(F3.000427953113401
F-3.1043586253374036
tp365
a(F3.350222683044205
F-1.843685460955715
tp366
a(F2.5569423383388914
F-1.5417898535662042
tp367
a(F2.229082969994418
F-1.831254429619226
tp368
a(F2.9679877170761317
F-1.4177349677543079
tp369
a(F3.160263073303838
F-1.7633018525506208
tp370
a(F3.116544295895456
F-2.199059557832272
tp371
a(F2.8148447170156254
F-2.5622198800544282
tp372
a(F2.4749718767657756
F-2.6386304306252644
tp373
a(F2.5007653906813947
F-1.9485331256342988
tp374
a(F2.34207584307764
F-2.47048277443087
tp375
a(F2.424162032501293
F-1.735968659174873
tp376
a(F2.5064164293445854
F-2.3088509450534542
tp377
a(F3.450976286832567
F-2.614418789086754
tp378
a(F2.952554929323389
F-2.474833714943949
tp379
a(F3.5473535270519507
F-2.330541455316668
tp380
a(F3.4183950829406466
F-2.2508018679513415
tp381
a(F2.756910929154728
F-1.6119625736587255
tp382
a(F3.217738640779637
F-1.7912787929668534
tp383
a(F2.235770818595399
F-2.496775307858732
tp384
a.